target datalayout = "e-m:e-p270:32:32-p271:32:32-p272:64:64-i64:64-i128:128-f80:128-n8:16:32:64-S128"
target triple = "x86_64-pc-linux-gnu"

%struct.sockaddr = type { i16, [14 x i8] }
%struct.sockaddr_in6 = type { i16, i16, i32, %struct.in6_addr, i32 }
%struct.in6_addr = type { %union.anon }
%union.anon = type { [4 x i32] }

; Function Attrs: nounwind uwtable
define hidden i32 @Curl_ipv6_scope(ptr noundef %0) #0 {
  %2 = alloca i32, align 4
  %3 = alloca ptr, align 8
  %4 = alloca ptr, align 8
  %5 = alloca ptr, align 8
  %6 = alloca i16, align 2
  %7 = alloca i32, align 4
  store ptr %0, ptr %3, align 8, !tbaa !3
  %8 = load ptr, ptr %3, align 8, !tbaa !3
  %9 = getelementptr inbounds nuw %struct.sockaddr, ptr %8, i32 0, i32 0
  %10 = load i16, ptr %9, align 2, !tbaa !8
  %11 = zext i16 %10 to i32
  %12 = icmp eq i32 %11, 10
  br i1 %12, label %13, label %130

13:                                               ; preds = %1
  call void @llvm.lifetime.start.p0(i64 8, ptr %4) #5
  %14 = load ptr, ptr %3, align 8, !tbaa !3
  store ptr %14, ptr %4, align 8, !tbaa !11
  call void @llvm.lifetime.start.p0(i64 8, ptr %5) #5
  %15 = load ptr, ptr %4, align 8, !tbaa !11
  %16 = getelementptr inbounds nuw %struct.sockaddr_in6, ptr %15, i32 0, i32 3
  %17 = getelementptr inbounds nuw %struct.in6_addr, ptr %16, i32 0, i32 0
  %18 = getelementptr inbounds [16 x i8], ptr %17, i64 0, i64 0
  store ptr %18, ptr %5, align 8, !tbaa !13
  call void @llvm.lifetime.start.p0(i64 2, ptr %6) #5
  %19 = load ptr, ptr %5, align 8, !tbaa !13
  %20 = getelementptr inbounds i8, ptr %19, i64 0
  %21 = load i8, ptr %20, align 1, !tbaa !15
  %22 = zext i8 %21 to i32
  %23 = shl i32 %22, 8
  %24 = load ptr, ptr %5, align 8, !tbaa !13
  %25 = getelementptr inbounds i8, ptr %24, i64 1
  %26 = load i8, ptr %25, align 1, !tbaa !15
  %27 = zext i8 %26 to i32
  %28 = or i32 %23, %27
  %29 = trunc i32 %28 to i16
  store i16 %29, ptr %6, align 2, !tbaa !16
  %30 = load ptr, ptr %5, align 8, !tbaa !13
  %31 = getelementptr inbounds i8, ptr %30, i64 0
  %32 = load i8, ptr %31, align 1, !tbaa !15
  %33 = zext i8 %32 to i32
  %34 = and i32 %33, 254
  %35 = icmp eq i32 %34, 252
  br i1 %35, label %36, label %37

36:                                               ; preds = %13
  store i32 3, ptr %2, align 4
  store i32 1, ptr %7, align 4
  br label %127

37:                                               ; preds = %13
  %38 = load i16, ptr %6, align 2, !tbaa !16
  %39 = zext i16 %38 to i32
  %40 = and i32 %39, 65472
  switch i32 %40, label %125 [
    i32 65152, label %41
    i32 65216, label %42
    i32 0, label %43
  ]

41:                                               ; preds = %37
  store i32 1, ptr %2, align 4
  store i32 1, ptr %7, align 4
  br label %127

42:                                               ; preds = %37
  store i32 2, ptr %2, align 4
  store i32 1, ptr %7, align 4
  br label %127

43:                                               ; preds = %37
  %44 = load ptr, ptr %5, align 8, !tbaa !13
  %45 = getelementptr inbounds i8, ptr %44, i64 1
  %46 = load i8, ptr %45, align 1, !tbaa !15
  %47 = zext i8 %46 to i32
  %48 = load ptr, ptr %5, align 8, !tbaa !13
  %49 = getelementptr inbounds i8, ptr %48, i64 2
  %50 = load i8, ptr %49, align 1, !tbaa !15
  %51 = zext i8 %50 to i32
  %52 = or i32 %47, %51
  %53 = load ptr, ptr %5, align 8, !tbaa !13
  %54 = getelementptr inbounds i8, ptr %53, i64 3
  %55 = load i8, ptr %54, align 1, !tbaa !15
  %56 = zext i8 %55 to i32
  %57 = or i32 %52, %56
  %58 = load ptr, ptr %5, align 8, !tbaa !13
  %59 = getelementptr inbounds i8, ptr %58, i64 4
  %60 = load i8, ptr %59, align 1, !tbaa !15
  %61 = zext i8 %60 to i32
  %62 = or i32 %57, %61
  %63 = load ptr, ptr %5, align 8, !tbaa !13
  %64 = getelementptr inbounds i8, ptr %63, i64 5
  %65 = load i8, ptr %64, align 1, !tbaa !15
  %66 = zext i8 %65 to i32
  %67 = or i32 %62, %66
  %68 = load ptr, ptr %5, align 8, !tbaa !13
  %69 = getelementptr inbounds i8, ptr %68, i64 6
  %70 = load i8, ptr %69, align 1, !tbaa !15
  %71 = zext i8 %70 to i32
  %72 = or i32 %67, %71
  %73 = load ptr, ptr %5, align 8, !tbaa !13
  %74 = getelementptr inbounds i8, ptr %73, i64 7
  %75 = load i8, ptr %74, align 1, !tbaa !15
  %76 = zext i8 %75 to i32
  %77 = or i32 %72, %76
  %78 = load ptr, ptr %5, align 8, !tbaa !13
  %79 = getelementptr inbounds i8, ptr %78, i64 8
  %80 = load i8, ptr %79, align 1, !tbaa !15
  %81 = zext i8 %80 to i32
  %82 = or i32 %77, %81
  %83 = load ptr, ptr %5, align 8, !tbaa !13
  %84 = getelementptr inbounds i8, ptr %83, i64 9
  %85 = load i8, ptr %84, align 1, !tbaa !15
  %86 = zext i8 %85 to i32
  %87 = or i32 %82, %86
  %88 = load ptr, ptr %5, align 8, !tbaa !13
  %89 = getelementptr inbounds i8, ptr %88, i64 10
  %90 = load i8, ptr %89, align 1, !tbaa !15
  %91 = zext i8 %90 to i32
  %92 = or i32 %87, %91
  %93 = load ptr, ptr %5, align 8, !tbaa !13
  %94 = getelementptr inbounds i8, ptr %93, i64 11
  %95 = load i8, ptr %94, align 1, !tbaa !15
  %96 = zext i8 %95 to i32
  %97 = or i32 %92, %96
  %98 = load ptr, ptr %5, align 8, !tbaa !13
  %99 = getelementptr inbounds i8, ptr %98, i64 12
  %100 = load i8, ptr %99, align 1, !tbaa !15
  %101 = zext i8 %100 to i32
  %102 = or i32 %97, %101
  %103 = load ptr, ptr %5, align 8, !tbaa !13
  %104 = getelementptr inbounds i8, ptr %103, i64 13
  %105 = load i8, ptr %104, align 1, !tbaa !15
  %106 = zext i8 %105 to i32
  %107 = or i32 %102, %106
  %108 = load ptr, ptr %5, align 8, !tbaa !13
  %109 = getelementptr inbounds i8, ptr %108, i64 14
  %110 = load i8, ptr %109, align 1, !tbaa !15
  %111 = zext i8 %110 to i32
  %112 = or i32 %107, %111
  %113 = trunc i32 %112 to i16
  store i16 %113, ptr %6, align 2, !tbaa !16
  %114 = load i16, ptr %6, align 2, !tbaa !16
  %115 = zext i16 %114 to i32
  %116 = icmp ne i32 %115, 0
  br i1 %116, label %123, label %117

117:                                              ; preds = %43
  %118 = load ptr, ptr %5, align 8, !tbaa !13
  %119 = getelementptr inbounds i8, ptr %118, i64 15
  %120 = load i8, ptr %119, align 1, !tbaa !15
  %121 = zext i8 %120 to i32
  %122 = icmp ne i32 %121, 1
  br i1 %122, label %123, label %124

123:                                              ; preds = %117, %43
  br label %126

124:                                              ; preds = %117
  store i32 4, ptr %2, align 4
  store i32 1, ptr %7, align 4
  br label %127

125:                                              ; preds = %37
  br label %126

126:                                              ; preds = %125, %123
  store i32 0, ptr %7, align 4
  br label %127

127:                                              ; preds = %126, %124, %42, %41, %36
  call void @llvm.lifetime.end.p0(i64 2, ptr %6) #5
  call void @llvm.lifetime.end.p0(i64 8, ptr %5) #5
  call void @llvm.lifetime.end.p0(i64 8, ptr %4) #5
  %128 = load i32, ptr %7, align 4
  switch i32 %128, label %133 [
    i32 0, label %129
    i32 1, label %131
  ]

129:                                              ; preds = %127
  br label %130

130:                                              ; preds = %129, %1
  store i32 0, ptr %2, align 4
  br label %131

131:                                              ; preds = %130, %127
  %132 = load i32, ptr %2, align 4
  ret i32 %132

133:                                              ; preds = %127
  unreachable
}