; Function Attrs: mustprogress nofree norecurse nosync nounwind willreturn memory(argmem: read) uwtable
define hidden range(i32 0, 5) i32 @Curl_ipv6_scope(ptr noundef readonly captures(none) %0) local_unnamed_addr #0 {
  %2 = load i16, ptr %0, align 2, !tbaa !3
  %3 = icmp eq i16 %2, 10
  br i1 %3, label %4, label %60

4:                                                ; preds = %1
  %5 = getelementptr inbounds nuw i8, ptr %0, i64 8
  %6 = load i8, ptr %5, align 1, !tbaa !8
  %7 = zext i8 %6 to i32
  %8 = getelementptr inbounds nuw i8, ptr %0, i64 9
  %9 = load i8, ptr %8, align 1, !tbaa !8
  %10 = and i32 %7, 254
  %11 = icmp eq i32 %10, 252
  br i1 %11, label %.thread, label %12

12:                                               ; preds = %4
  %13 = shl nuw nsw i32 %7, 8
  %14 = and i8 %9, -64
  %.masked = zext i8 %14 to i32
  %15 = or disjoint i32 %13, %.masked
  %trunc = trunc nuw i32 %15 to i16
  switch i16 %trunc, label %60 [
    i16 -384, label %.thread
    i16 -320, label %16
    i16 0, label %17
  ]

16:                                               ; preds = %12
  br label %.thread

17:                                               ; preds = %12
  %18 = getelementptr inbounds nuw i8, ptr %0, i64 10
  %19 = load i8, ptr %18, align 1, !tbaa !8
  %20 = getelementptr inbounds nuw i8, ptr %0, i64 11
  %21 = load i8, ptr %20, align 1, !tbaa !8
  %22 = getelementptr inbounds nuw i8, ptr %0, i64 12
  %23 = load i8, ptr %22, align 1, !tbaa !8
  %24 = getelementptr inbounds nuw i8, ptr %0, i64 13
  %25 = load i8, ptr %24, align 1, !tbaa !8
  %26 = getelementptr inbounds nuw i8, ptr %0, i64 14
  %27 = load i8, ptr %26, align 1, !tbaa !8
  %28 = getelementptr inbounds nuw i8, ptr %0, i64 15
  %29 = load i8, ptr %28, align 1, !tbaa !8
  %30 = getelementptr inbounds nuw i8, ptr %0, i64 16
  %31 = load i8, ptr %30, align 1, !tbaa !8
  %32 = getelementptr inbounds nuw i8, ptr %0, i64 17
  %33 = load i8, ptr %32, align 1, !tbaa !8
  %34 = getelementptr inbounds nuw i8, ptr %0, i64 18
  %35 = load i8, ptr %34, align 1, !tbaa !8
  %36 = getelementptr inbounds nuw i8, ptr %0, i64 19
  %37 = load i8, ptr %36, align 1, !tbaa !8
  %38 = getelementptr inbounds nuw i8, ptr %0, i64 20
  %39 = load i8, ptr %38, align 1, !tbaa !8
  %40 = getelementptr inbounds nuw i8, ptr %0, i64 21
  %41 = load i8, ptr %40, align 1, !tbaa !8
  %42 = getelementptr inbounds nuw i8, ptr %0, i64 22
  %43 = load i8, ptr %42, align 1, !tbaa !8
  %44 = or i8 %19, %21
  %45 = or i8 %44, %23
  %46 = or i8 %45, %25
  %47 = or i8 %46, %27
  %48 = or i8 %47, %29
  %49 = or i8 %48, %31
  %50 = or i8 %49, %33
  %51 = or i8 %50, %35
  %52 = or i8 %51, %37
  %53 = or i8 %52, %39
  %54 = or i8 %53, %41
  %55 = or i8 %54, %43
  %56 = or i8 %55, %9
  %.not = icmp eq i8 %56, 0
  br i1 %.not, label %57, label %60

57:                                               ; preds = %17
  %58 = getelementptr inbounds nuw i8, ptr %0, i64 23
  %59 = load i8, ptr %58, align 1, !tbaa !8
  %.not25 = icmp eq i8 %59, 1
  br i1 %.not25, label %.thread, label %60

.thread:                                          ; preds = %16, %4, %12, %57
  %.024.ph = phi i32 [ 4, %57 ], [ 1, %12 ], [ 3, %4 ], [ 2, %16 ]
  br label %60

60:                                               ; preds = %1, %57, %17, %12, %.thread
  %.1 = phi i32 [ %.024.ph, %.thread ], [ 0, %12 ], [ 0, %17 ], [ 0, %57 ], [ 0, %1 ]
  ret i32 %.1
}